; Function Attrs: mustprogress uwtable
define dso_local void @_Z26ImGui_ImplOpenGL3_Shutdownv() local_unnamed_addr #0 {
  %1 = tail call noundef ptr @_ZN5ImGui17GetCurrentContextEv()
  %.not.i = icmp eq ptr %1, null
  br i1 %.not.i, label %_ZL32ImGui_ImplOpenGL3_GetBackendDatav.exit, label %2

2:                                                ; preds = %0
  %3 = tail call noundef nonnull align 8 dereferenceable(2944) ptr @_ZN5ImGui5GetIOEv()
  %4 = getelementptr inbounds nuw i8, ptr %3, i64 152
  %5 = load ptr, ptr %4, align 8, !tbaa !19
  br label %_ZL32ImGui_ImplOpenGL3_GetBackendDatav.exit

_ZL32ImGui_ImplOpenGL3_GetBackendDatav.exit:      ; preds = %0, %2
  %6 = phi ptr [ %5, %2 ], [ null, %0 ]
  %7 = tail call noundef nonnull align 8 dereferenceable(2944) ptr @_ZN5ImGui5GetIOEv()
  tail call void @_Z38ImGui_ImplOpenGL3_DestroyDeviceObjectsv()
  %8 = getelementptr inbounds nuw i8, ptr %7, i64 136
  store ptr null, ptr %8, align 8, !tbaa !31
  %9 = getelementptr inbounds nuw i8, ptr %7, i64 152
  store ptr null, ptr %9, align 8, !tbaa !19
  %10 = getelementptr inbounds nuw i8, ptr %7, i64 4
  %11 = load i32, ptr %10, align 4, !tbaa !40
  %12 = and i32 %11, -9
  store i32 %12, ptr %10, align 4, !tbaa !40
  %.not.i4 = icmp eq ptr %6, null
  br i1 %.not.i4, label %_Z9IM_DELETEI22ImGui_ImplOpenGL3_DataEvPT_.exit, label %13

13:                                               ; preds = %_ZL32ImGui_ImplOpenGL3_GetBackendDatav.exit
  tail call void @_ZN5ImGui7MemFreeEPv(ptr noundef nonnull %6)
  br label %_Z9IM_DELETEI22ImGui_ImplOpenGL3_DataEvPT_.exit

_Z9IM_DELETEI22ImGui_ImplOpenGL3_DataEvPT_.exit:  ; preds = %_ZL32ImGui_ImplOpenGL3_GetBackendDatav.exit, %13
  ret void
}